; Function Attrs: nounwind uwtable
define dso_local void @strbuf_addstrings(ptr noundef captures(none) %0, ptr noundef readonly captures(none) %1, i64 noundef %2) local_unnamed_addr #3 {
  %4 = tail call i64 @strlen(ptr noundef nonnull dereferenceable(1) %1) #26
  %.not.i = icmp eq i64 %4, 0
  br i1 %.not.i, label %st_mult.exit, label %5

5:                                                ; preds = %3
  %mul.i = tail call { i64, i1 } @llvm.umul.with.overflow.i64(i64 %4, i64 %2)
  %mul.ov.i = extractvalue { i64, i1 } %mul.i, 1
  br i1 %mul.ov.i, label %6, label %st_mult.exit

6:                                                ; preds = %5
  tail call void (ptr, ...) @die(ptr noundef nonnull @.str.27, i64 noundef %4, i64 noundef %2) #24
  unreachable

st_mult.exit:                                     ; preds = %3, %5
  %7 = mul i64 %4, %2
  %8 = load i64, ptr %0, align 8, !tbaa !15
  %.not.i9 = icmp eq i64 %8, 0
  %9 = icmp eq i64 %7, -1
  br i1 %9, label %15, label %10

10:                                               ; preds = %st_mult.exit
  %11 = getelementptr inbounds nuw i8, ptr %0, i64 8
  %12 = load i64, ptr %11, align 8, !tbaa !16
  %13 = sub nuw i64 -2, %7
  %14 = icmp ult i64 %13, %12
  br i1 %14, label %15, label %16

15:                                               ; preds = %10, %st_mult.exit
  tail call void (ptr, ...) @die(ptr noundef nonnull @.str) #24
  unreachable

16:                                               ; preds = %10
  br i1 %.not.i9, label %17, label %19

17:                                               ; preds = %16
  %18 = getelementptr inbounds nuw i8, ptr %0, i64 16
  store ptr null, ptr %18, align 8, !tbaa !12
  br label %19

19:                                               ; preds = %17, %16
  %20 = add nuw i64 %7, 1
  %21 = add i64 %20, %12
  %22 = icmp ugt i64 %21, %8
  br i1 %22, label %st_mult.exit.i, label %29

st_mult.exit.i:                                   ; preds = %19
  %23 = mul i64 %8, 3
  %24 = add i64 %23, 48
  %25 = lshr i64 %24, 1
  %..i = tail call i64 @llvm.umax.i64(i64 %25, i64 %21)
  store i64 %..i, ptr %0, align 8, !tbaa !15
  %26 = getelementptr inbounds nuw i8, ptr %0, i64 16
  %27 = load ptr, ptr %26, align 8, !tbaa !12
  %28 = tail call ptr @xrealloc(ptr noundef %27, i64 noundef %..i) #25
  store ptr %28, ptr %26, align 8, !tbaa !12
  br label %29

29:                                               ; preds = %st_mult.exit.i, %19
  br i1 %.not.i9, label %30, label %strbuf_grow.exit

30:                                               ; preds = %29
  %31 = getelementptr inbounds nuw i8, ptr %0, i64 16
  %32 = load ptr, ptr %31, align 8, !tbaa !12
  store i8 0, ptr %32, align 1, !tbaa !4
  br label %strbuf_grow.exit

strbuf_grow.exit:                                 ; preds = %29, %30
  %.not = icmp eq i64 %2, 0
  br i1 %.not, label %._crit_edge, label %.lr.ph

._crit_edge:                                      ; preds = %.lr.ph, %strbuf_grow.exit
  ret void

.lr.ph:                                           ; preds = %strbuf_grow.exit, %.lr.ph
  %.010 = phi i64 [ %33, %.lr.ph ], [ 0, %strbuf_grow.exit ]
  tail call void @strbuf_add(ptr noundef nonnull %0, ptr noundef nonnull %1, i64 noundef %4)
  %33 = add nuw i64 %.010, 1
  %exitcond.not = icmp eq i64 %33, %2
  br i1 %exitcond.not, label %._crit_edge, label %.lr.ph, !llvm.loop !34
}